target datalayout = "e-m:e-p270:32:32-p271:32:32-p272:64:64-i64:64-i128:128-f80:128-n8:16:32:64-S128"
target triple = "x86_64-pc-linux-gnu"

; Function Attrs: nounwind uwtable
define internal i32 @int_put_bytes_uint32(ptr noundef %0, ptr noundef %1, ptr noundef %2) #0 {
  %4 = alloca ptr, align 8
  %5 = alloca ptr, align 8
  %6 = alloca ptr, align 8
  %7 = alloca ptr, align 8
  %8 = alloca i32, align 4
  %9 = alloca i64, align 8
  store ptr %0, ptr %4, align 8, !tbaa !3
  store ptr %1, ptr %5, align 8, !tbaa !17
  store ptr %2, ptr %6, align 8, !tbaa !18
  call void @llvm.lifetime.start.p0(i64 8, ptr %7) #5
  %10 = load ptr, ptr %5, align 8, !tbaa !17
  store ptr %10, ptr %7, align 8, !tbaa !18
  call void @llvm.lifetime.start.p0(i64 4, ptr %8) #5
  %11 = load ptr, ptr %7, align 8, !tbaa !18
  %12 = load i32, ptr %11, align 4, !tbaa !8
  store i32 %12, ptr %8, align 4, !tbaa !8
  call void @llvm.lifetime.start.p0(i64 8, ptr %9) #5
  store i64 0, ptr %9, align 8, !tbaa !12
  br label %13

13:                                               ; preds = %16, %3
  %14 = load i32, ptr %8, align 4, !tbaa !8
  %15 = icmp ne i32 %14, 0
  br i1 %15, label %16, label %24

16:                                               ; preds = %13
  %17 = load i64, ptr %9, align 8, !tbaa !12
  %18 = add i64 %17, 1
  store i64 %18, ptr %9, align 8, !tbaa !12
  %19 = load i32, ptr %8, align 4, !tbaa !8
  %20 = and i32 %19, 255
  %21 = load ptr, ptr %6, align 8, !tbaa !18
  store i32 %20, ptr %21, align 4, !tbaa !8
  %22 = load i32, ptr %8, align 4, !tbaa !8
  %23 = lshr i32 %22, 8
  store i32 %23, ptr %8, align 4, !tbaa !8
  br label %13, !llvm.loop !20

24:                                               ; preds = %13
  %25 = load i64, ptr %9, align 8, !tbaa !12
  %26 = icmp eq i64 %25, 0
  br i1 %26, label %27, label %28

27:                                               ; preds = %24
  store i64 1, ptr %9, align 8, !tbaa !12
  br label %28

28:                                               ; preds = %27, %24
  %29 = load ptr, ptr %4, align 8, !tbaa !3
  %30 = load ptr, ptr %7, align 8, !tbaa !18
  %31 = load i32, ptr %30, align 4, !tbaa !8
  %32 = zext i32 %31 to i64
  %33 = load i64, ptr %9, align 8, !tbaa !12
  %34 = call i32 @WPACKET_put_bytes__(ptr noundef %29, i64 noundef %32, i64 noundef %33)
  call void @llvm.lifetime.end.p0(i64 8, ptr %9) #5
  call void @llvm.lifetime.end.p0(i64 4, ptr %8) #5
  call void @llvm.lifetime.end.p0(i64 8, ptr %7) #5
  ret i32 %34
}