; Function Attrs: nounwind uwtable
define internal i32 @int_put_bytes_uint32(ptr noundef %0, ptr noundef readonly captures(none) %1, ptr noundef writeonly captures(none) %2) #0 {
  %4 = load i32, ptr %1, align 4, !tbaa !11
  %.not11 = icmp eq i32 %4, 0
  br i1 %.not11, label %8, label %.lr.ph

.lr.ph:                                           ; preds = %3, %.lr.ph
  %.013 = phi i64 [ %5, %.lr.ph ], [ 0, %3 ]
  %.01012 = phi i32 [ %6, %.lr.ph ], [ %4, %3 ]
  %5 = add nuw nsw i64 %.013, 1
  %6 = lshr i32 %.01012, 8
  %.not = icmp ult i32 %.01012, 256
  br i1 %.not, label %._crit_edge, label %.lr.ph, !llvm.loop !14

._crit_edge:                                      ; preds = %.lr.ph
  store i32 %.01012, ptr %2, align 4, !tbaa !11
  %.pre = load i32, ptr %1, align 4, !tbaa !11
  %7 = zext i32 %.pre to i64
  br label %8

8:                                                ; preds = %._crit_edge, %3
  %9 = phi i64 [ %7, %._crit_edge ], [ 0, %3 ]
  %.0.lcssa = phi i64 [ %5, %._crit_edge ], [ 0, %3 ]
  %spec.store.select = tail call i64 @llvm.umax.i64(i64 %.0.lcssa, i64 1)
  %10 = tail call i32 @WPACKET_put_bytes__(ptr noundef %0, i64 noundef %9, i64 noundef %spec.store.select) #4
  ret i32 %10
}